target datalayout = "e-m:e-p270:32:32-p271:32:32-p272:64:64-i64:64-i128:128-f80:128-n8:16:32:64-S128"
target triple = "x86_64-unknown-linux-gnu"

@.str = private unnamed_addr constant [10 x i8] c"/chardevs\00", align 1
@.str.2 = private unnamed_addr constant [23 x i8] c"../qemu/chardev/char.c\00", align 1
@.str.4 = private unnamed_addr constant [8 x i8] c"chardev\00", align 1
@.str.7 = private unnamed_addr constant [4 x i8] c"mux\00", align 1
@.str.67 = private unnamed_addr constant [9 x i8] c"chardev:\00", align 1
@.str.68 = private unnamed_addr constant [15 x i8] c"permit_mux_mon\00", align 1
@__PRETTY_FUNCTION__.qemu_chr_new_noreplay = private unnamed_addr constant [82 x i8] c"Chardev *qemu_chr_new_noreplay(const char *, const char *, _Bool, GMainContext *)\00", align 1
@.str.104 = private unnamed_addr constant [101 x i8] c"/home/dtcxzyw/WorkSpace/Projects/compilers/llvm-opt-benchmark/bench/qemu/qemu/include/chardev/char.h\00", align 1
@__func__.CHARDEV = private unnamed_addr constant [8 x i8] c"CHARDEV\00", align 1

; Function Attrs: nounwind sspstrong uwtable
define internal ptr @CHARDEV(ptr noundef %obj) #0 {
entry:
  %obj.addr = alloca ptr, align 8
  store ptr %obj, ptr %obj.addr, align 8
  %0 = load ptr, ptr %obj.addr, align 8
  %call = call ptr @object_dynamic_cast_assert(ptr noundef %0, ptr noundef @.str.4, ptr noundef @.str.104, i32 noundef 231, ptr noundef @__func__.CHARDEV)
  ret ptr %call
}

; Function Attrs: nounwind sspstrong uwtable
define dso_local ptr @get_chardevs_root() #0 {
entry:
  %call = call ptr @object_get_root()
  %call1 = call ptr @container_get(ptr noundef %call, ptr noundef @.str)
  ret ptr %call1
}

; Function Attrs: nounwind sspstrong uwtable
define dso_local ptr @qemu_chr_find(ptr noundef %name) #0 {
entry:
  %name.addr = alloca ptr, align 8
  %obj = alloca ptr, align 8
  store ptr %name, ptr %name.addr, align 8
  %call = call ptr @get_chardevs_root()
  %0 = load ptr, ptr %name.addr, align 8
  %call1 = call ptr @object_resolve_path_component(ptr noundef %call, ptr noundef %0)
  store ptr %call1, ptr %obj, align 8
  %1 = load ptr, ptr %obj, align 8
  %tobool = icmp ne ptr %1, null
  br i1 %tobool, label %cond.true, label %cond.false

cond.true:                                        ; preds = %entry
  %2 = load ptr, ptr %obj, align 8
  %call2 = call ptr @CHARDEV(ptr noundef %2)
  br label %cond.end

cond.false:                                       ; preds = %entry
  br label %cond.end

cond.end:                                         ; preds = %cond.false, %cond.true
  %cond = phi ptr [ %call2, %cond.true ], [ null, %cond.false ]
  ret ptr %cond
}

; Function Attrs: nounwind sspstrong uwtable
define dso_local ptr @qemu_chr_new_noreplay(ptr noundef %label, ptr noundef %filename, i1 noundef zeroext %permit_mux_mon, ptr noundef %context) #0 {
entry:
  %retval = alloca ptr, align 8
  %label.addr = alloca ptr, align 8
  %filename.addr = alloca ptr, align 8
  %permit_mux_mon.addr = alloca i8, align 1
  %context.addr = alloca ptr, align 8
  %p = alloca ptr, align 8
  %chr = alloca ptr, align 8
  %opts = alloca ptr, align 8
  %err = alloca ptr, align 8
  store ptr %label, ptr %label.addr, align 8
  store ptr %filename, ptr %filename.addr, align 8
  %frombool = zext i1 %permit_mux_mon to i8
  store i8 %frombool, ptr %permit_mux_mon.addr, align 1
  store ptr %context, ptr %context.addr, align 8
  store ptr null, ptr %err, align 8
  %0 = load ptr, ptr %filename.addr, align 8
  %call = call i32 @strstart(ptr noundef %0, ptr noundef @.str.67, ptr noundef %p)
  %tobool = icmp ne i32 %call, 0
  br i1 %tobool, label %if.then, label %if.end

if.then:                                          ; preds = %entry
  %1 = load ptr, ptr %p, align 8
  %call1 = call ptr @qemu_chr_find(ptr noundef %1)
  store ptr %call1, ptr %retval, align 8
  br label %return

if.end:                                           ; preds = %entry
  %2 = load ptr, ptr %label.addr, align 8
  %3 = load ptr, ptr %filename.addr, align 8
  %4 = load i8, ptr %permit_mux_mon.addr, align 1
  %tobool2 = trunc i8 %4 to i1
  %call3 = call ptr @qemu_chr_parse_compat(ptr noundef %2, ptr noundef %3, i1 noundef zeroext %tobool2)
  store ptr %call3, ptr %opts, align 8
  %5 = load ptr, ptr %opts, align 8
  %tobool4 = icmp ne ptr %5, null
  br i1 %tobool4, label %if.end6, label %if.then5

if.then5:                                         ; preds = %if.end
  store ptr null, ptr %retval, align 8
  br label %return

if.end6:                                          ; preds = %if.end
  %6 = load ptr, ptr %opts, align 8
  %7 = load ptr, ptr %context.addr, align 8
  %call7 = call ptr @qemu_chr_new_from_opts(ptr noundef %6, ptr noundef %7, ptr noundef %err)
  store ptr %call7, ptr %chr, align 8
  %8 = load ptr, ptr %chr, align 8
  %tobool8 = icmp ne ptr %8, null
  br i1 %tobool8, label %if.end10, label %if.then9

if.then9:                                         ; preds = %if.end6
  %9 = load ptr, ptr %err, align 8
  call void @error_report_err(ptr noundef %9)
  br label %out

if.end10:                                         ; preds = %if.end6
  %10 = load ptr, ptr %opts, align 8
  %call11 = call zeroext i1 @qemu_opt_get_bool(ptr noundef %10, ptr noundef @.str.7, i1 noundef zeroext false)
  br i1 %call11, label %if.then12, label %if.end19

if.then12:                                        ; preds = %if.end10
  %11 = load i8, ptr %permit_mux_mon.addr, align 1
  %tobool13 = trunc i8 %11 to i1
  br i1 %tobool13, label %if.then14, label %if.else

if.then14:                                        ; preds = %if.then12
  br label %if.end15

if.else:                                          ; preds = %if.then12
  call void @__assert_fail(ptr noundef @.str.68, ptr noundef @.str.2, i32 noundef 698, ptr noundef @__PRETTY_FUNCTION__.qemu_chr_new_noreplay) #10
  unreachable

if.end15:                                         ; preds = %if.then14
  %12 = load ptr, ptr %chr, align 8
  call void @monitor_init_hmp(ptr noundef %12, i1 noundef zeroext true, ptr noundef %err)
  %13 = load ptr, ptr %err, align 8
  %tobool16 = icmp ne ptr %13, null
  br i1 %tobool16, label %if.then17, label %if.end18

if.then17:                                        ; preds = %if.end15
  %14 = load ptr, ptr %err, align 8
  call void @error_report_err(ptr noundef %14)
  %15 = load ptr, ptr %chr, align 8
  call void @object_unparent(ptr noundef %15)
  store ptr null, ptr %chr, align 8
  br label %out

if.end18:                                         ; preds = %if.end15
  br label %if.end19

if.end19:                                         ; preds = %if.end18, %if.end10
  br label %out

out:                                              ; preds = %if.end19, %if.then17, %if.then9
  %16 = load ptr, ptr %opts, align 8
  call void @qemu_opts_del(ptr noundef %16)
  %17 = load ptr, ptr %chr, align 8
  store ptr %17, ptr %retval, align 8
  br label %return

return:                                           ; preds = %out, %if.then5, %if.then
  %18 = load ptr, ptr %retval, align 8
  ret ptr %18
}