; Function Attrs: nounwind sspstrong uwtable
define dso_local ptr @qemu_chr_new_noreplay(ptr noundef %label, ptr noundef %filename, i1 noundef zeroext %permit_mux_mon, ptr noundef %context) local_unnamed_addr #0 {
entry:
  %p = alloca ptr, align 8
  %err = alloca ptr, align 8
  store ptr null, ptr %err, align 8
  %call = call i32 @strstart(ptr noundef %filename, ptr noundef nonnull @.str.67, ptr noundef nonnull %p) #13
  %tobool.not = icmp eq i32 %call, 0
  br i1 %tobool.not, label %if.end, label %if.then

if.then:                                          ; preds = %entry
  %0 = load ptr, ptr %p, align 8
  %call.i.i = call ptr @object_get_root() #13
  %call1.i.i = call ptr @container_get(ptr noundef %call.i.i, ptr noundef nonnull @.str) #13
  %call1.i = call ptr @object_resolve_path_component(ptr noundef %call1.i.i, ptr noundef %0) #13
  %tobool.not.i = icmp eq ptr %call1.i, null
  br i1 %tobool.not.i, label %return, label %cond.true.i

cond.true.i:                                      ; preds = %if.then
  %call.i2.i = call ptr @object_dynamic_cast_assert(ptr noundef nonnull %call1.i, ptr noundef nonnull @.str.4, ptr noundef nonnull @.str.104, i32 noundef 231, ptr noundef nonnull @__func__.CHARDEV) #13
  br label %return

if.end:                                           ; preds = %entry
  %call3 = call ptr @qemu_chr_parse_compat(ptr noundef %label, ptr noundef %filename, i1 noundef zeroext %permit_mux_mon)
  %tobool4.not = icmp eq ptr %call3, null
  br i1 %tobool4.not, label %return, label %if.end6

if.end6:                                          ; preds = %if.end
  %call7 = call ptr @qemu_chr_new_from_opts(ptr noundef nonnull %call3, ptr noundef %context, ptr noundef nonnull %err)
  %tobool8.not = icmp eq ptr %call7, null
  br i1 %tobool8.not, label %if.then9, label %if.end10

if.then9:                                         ; preds = %if.end6
  %1 = load ptr, ptr %err, align 8
  call void @error_report_err(ptr noundef %1) #13
  br label %out

if.end10:                                         ; preds = %if.end6
  %call11 = call zeroext i1 @qemu_opt_get_bool(ptr noundef nonnull %call3, ptr noundef nonnull @.str.7, i1 noundef zeroext false) #13
  br i1 %call11, label %if.then12, label %out

if.then12:                                        ; preds = %if.end10
  br i1 %permit_mux_mon, label %if.end15, label %if.else

if.else:                                          ; preds = %if.then12
  call void @__assert_fail(ptr noundef nonnull @.str.68, ptr noundef nonnull @.str.2, i32 noundef 698, ptr noundef nonnull @__PRETTY_FUNCTION__.qemu_chr_new_noreplay) #14
  unreachable

if.end15:                                         ; preds = %if.then12
  call void @monitor_init_hmp(ptr noundef nonnull %call7, i1 noundef zeroext true, ptr noundef nonnull %err) #13
  %2 = load ptr, ptr %err, align 8
  %tobool16.not = icmp eq ptr %2, null
  br i1 %tobool16.not, label %out, label %if.then17

if.then17:                                        ; preds = %if.end15
  call void @error_report_err(ptr noundef nonnull %2) #13
  call void @object_unparent(ptr noundef nonnull %call7) #13
  br label %out

out:                                              ; preds = %if.end10, %if.end15, %if.then17, %if.then9
  %chr.0 = phi ptr [ null, %if.then17 ], [ %call7, %if.end15 ], [ %call7, %if.end10 ], [ null, %if.then9 ]
  call void @qemu_opts_del(ptr noundef nonnull %call3) #13
  br label %return

return:                                           ; preds = %cond.true.i, %if.then, %if.end, %out
  %retval.0 = phi ptr [ %chr.0, %out ], [ null, %if.end ], [ %call.i2.i, %cond.true.i ], [ null, %if.then ]
  ret ptr %retval.0
}